target datalayout = "e-m:e-p270:32:32-p271:32:32-p272:64:64-i64:64-i128:128-f80:128-n8:16:32:64-S128"
target triple = "x86_64-unknown-linux-gnu"

%struct.anon = type { ptr }
%struct.TPMBackend = type { %struct.Object, ptr, i8, i8, ptr, ptr, %struct.anon.0 }
%struct.Object = type { ptr, ptr, ptr, i32, ptr }
%struct.anon.0 = type { ptr, ptr }
%struct.TPMInfoList = type { ptr, ptr }

@tpm_backends = internal global %struct.anon zeroinitializer, align 8

; Function Attrs: nounwind sspstrong uwtable
define dso_local ptr @qmp_query_tpm(ptr noundef %errp) #0 {
entry:
  %errp.addr = alloca ptr, align 8
  %drv = alloca ptr, align 8
  %head = alloca ptr, align 8
  %tail = alloca ptr, align 8
  store ptr %errp, ptr %errp.addr, align 8
  store ptr null, ptr %head, align 8
  store ptr %head, ptr %tail, align 8
  %0 = load ptr, ptr @tpm_backends, align 8
  store ptr %0, ptr %drv, align 8
  br label %for.cond

for.cond:                                         ; preds = %for.inc, %entry
  %1 = load ptr, ptr %drv, align 8
  %tobool = icmp ne ptr %1, null
  br i1 %tobool, label %for.body, label %for.end

for.body:                                         ; preds = %for.cond
  %2 = load ptr, ptr %drv, align 8
  %tpmif = getelementptr inbounds %struct.TPMBackend, ptr %2, i32 0, i32 1
  %3 = load ptr, ptr %tpmif, align 8
  %tobool1 = icmp ne ptr %3, null
  br i1 %tobool1, label %if.end, label %if.then

if.then:                                          ; preds = %for.body
  br label %for.inc

if.end:                                           ; preds = %for.body
  br label %do.body

do.body:                                          ; preds = %if.end
  %call = call noalias ptr @g_malloc0(i64 noundef 16) #5
  %4 = load ptr, ptr %tail, align 8
  store ptr %call, ptr %4, align 8
  %5 = load ptr, ptr %drv, align 8
  %call2 = call ptr @tpm_backend_query_tpm(ptr noundef %5)
  %6 = load ptr, ptr %tail, align 8
  %7 = load ptr, ptr %6, align 8
  %value = getelementptr inbounds %struct.TPMInfoList, ptr %7, i32 0, i32 1
  store ptr %call2, ptr %value, align 8
  %8 = load ptr, ptr %tail, align 8
  %9 = load ptr, ptr %8, align 8
  %next = getelementptr inbounds %struct.TPMInfoList, ptr %9, i32 0, i32 0
  store ptr %next, ptr %tail, align 8
  br label %do.end

do.end:                                           ; preds = %do.body
  br label %for.inc

for.inc:                                          ; preds = %do.end, %if.then
  %10 = load ptr, ptr %drv, align 8
  %list = getelementptr inbounds %struct.TPMBackend, ptr %10, i32 0, i32 6
  %le_next = getelementptr inbounds %struct.anon.0, ptr %list, i32 0, i32 0
  %11 = load ptr, ptr %le_next, align 8
  store ptr %11, ptr %drv, align 8
  br label %for.cond, !llvm.loop !9

for.end:                                          ; preds = %for.cond
  %12 = load ptr, ptr %head, align 8
  ret ptr %12
}