; Function Attrs: nounwind sspstrong uwtable
define dso_local ptr @qmp_query_tpm(ptr noundef readnone captures(none) %errp) local_unnamed_addr #2 {
entry:
  %head = alloca ptr, align 8
  store ptr null, ptr %head, align 8
  %drv.06 = load ptr, ptr @tpm_backends, align 8
  %tobool.not7 = icmp eq ptr %drv.06, null
  br i1 %tobool.not7, label %for.end, label %for.body

for.body:                                         ; preds = %entry, %for.inc
  %drv.09 = phi ptr [ %drv.0, %for.inc ], [ %drv.06, %entry ]
  %tail.08 = phi ptr [ %tail.1, %for.inc ], [ %head, %entry ]
  %tpmif = getelementptr inbounds nuw i8, ptr %drv.09, i64 40
  %0 = load ptr, ptr %tpmif, align 8
  %tobool1.not = icmp eq ptr %0, null
  br i1 %tobool1.not, label %for.inc, label %do.body

do.body:                                          ; preds = %for.body
  %call = tail call noalias dereferenceable_or_null(16) ptr @g_malloc0(i64 noundef 16) #8
  store ptr %call, ptr %tail.08, align 8
  %call2 = tail call ptr @tpm_backend_query_tpm(ptr noundef nonnull %drv.09) #7
  %1 = load ptr, ptr %tail.08, align 8
  %value = getelementptr inbounds nuw i8, ptr %1, i64 8
  store ptr %call2, ptr %value, align 8
  %2 = load ptr, ptr %tail.08, align 8
  br label %for.inc

for.inc:                                          ; preds = %for.body, %do.body
  %tail.1 = phi ptr [ %2, %do.body ], [ %tail.08, %for.body ]
  %list = getelementptr inbounds nuw i8, ptr %drv.09, i64 72
  %drv.0 = load ptr, ptr %list, align 8
  %tobool.not = icmp eq ptr %drv.0, null
  br i1 %tobool.not, label %for.end.loopexit, label %for.body, !llvm.loop !9

for.end.loopexit:                                 ; preds = %for.inc
  %head.0.head.0.head.0.head.0..pre = load ptr, ptr %head, align 8
  br label %for.end

for.end:                                          ; preds = %for.end.loopexit, %entry
  %head.0.head.0.head.0. = phi ptr [ %head.0.head.0.head.0.head.0..pre, %for.end.loopexit ], [ null, %entry ]
  ret ptr %head.0.head.0.head.0.
}